target datalayout = "e-m:e-p270:32:32-p271:32:32-p272:64:64-i64:64-i128:128-f80:128-n8:16:32:64-S128"
target triple = "x86_64-pc-linux-gnu"

%"class.clang::SourceLocation" = type { i32 }
%"class.llvm::SmallVectorBase" = type { ptr, i32, i32 }
%"class.clang::ASTStmtReader" = type <{ ptr, ptr, %"class.std::optional", [4 x i8] }>
%"class.std::optional" = type { %"struct.std::_Optional_base" }
%"struct.std::_Optional_base" = type { %"struct.std::_Optional_payload" }
%"struct.std::_Optional_payload" = type { %"struct.std::_Optional_payload_base.base", [3 x i8] }
%"struct.std::_Optional_payload_base.base" = type <{ %"union.std::_Optional_payload_base<clang::BitsUnpacker>::_Storage", i8 }>
%"union.std::_Optional_payload_base<clang::BitsUnpacker>::_Storage" = type { %"class.clang::BitsUnpacker" }
%"class.clang::BitsUnpacker" = type { i32, i32 }
%"class.clang::Stmt" = type { %union.anon.9 }
%union.anon.9 = type { %"class.clang::Stmt::PseudoObjectExprBitfields" }
%"class.clang::Stmt::PseudoObjectExprBitfields" = type { i64 }
%"class.clang::ASTRecordReader" = type { %"class.clang::serialization::DataStreamBasicReader", ptr, ptr, i32, %"class.llvm::SmallVector.4" }
%"class.clang::serialization::DataStreamBasicReader" = type { %"class.clang::serialization::BasicReaderBase" }
%"class.clang::serialization::BasicReaderBase" = type { ptr }
%"class.llvm::SmallVector.4" = type { %"class.llvm::SmallVectorImpl.5", %"struct.llvm::SmallVectorStorage.8" }
%"class.llvm::SmallVectorImpl.5" = type { %"class.llvm::SmallVectorTemplateBase.6" }
%"class.llvm::SmallVectorTemplateBase.6" = type { %"class.llvm::SmallVectorTemplateCommon.7" }
%"class.llvm::SmallVectorTemplateCommon.7" = type { %"class.llvm::SmallVectorBase" }
%"struct.llvm::SmallVectorStorage.8" = type { [512 x i8] }
%"class.clang::ValueStmt" = type { %"class.clang::Stmt" }
%"class.clang::Expr" = type { %"class.clang::ValueStmt", %"class.clang::QualType" }
%"class.clang::QualType" = type { %"class.llvm::PointerIntPair.201" }
%"class.llvm::PointerIntPair.201" = type { %"struct.llvm::detail::PunnedPointer.202" }
%"struct.llvm::detail::PunnedPointer.202" = type { [8 x i8] }
%"class.clang::SourceRange" = type { %"class.clang::SourceLocation", %"class.clang::SourceLocation" }
%"class.clang::Stmt::TypeTraitExprBitfields" = type { i32, i32 }
%"class.clang::TypeTraitExpr" = type { %"class.clang::Expr", %"class.clang::SourceLocation", %"class.clang::SourceLocation" }

; Function Attrs: mustprogress nounwind uwtable
define linkonce_odr hidden noundef i64 @_ZN4llvm15TrailingObjectsIN5clang13TypeTraitExprEJPNS1_14TypeSourceInfoEEE22callNumTrailingObjectsEPKS2_NS_25trailing_objects_internal19TrailingObjectsBase13OverloadTokenIS2_EE(ptr noundef %0) #0 comdat align 2 {
  %2 = alloca ptr, align 8
  store ptr %0, ptr %2, align 8
  ret i64 1
}

; Function Attrs: mustprogress nounwind uwtable
define linkonce_odr hidden noundef ptr @_ZN4llvm15TrailingObjectsIN5clang13TypeTraitExprEJPNS1_14TypeSourceInfoEEE22getTrailingObjectsImplEPS2_NS_25trailing_objects_internal19TrailingObjectsBase13OverloadTokenIS2_EE(ptr noundef %0) #0 comdat align 2 {
  %2 = alloca ptr, align 8
  store ptr %0, ptr %2, align 8
  %3 = load ptr, ptr %2, align 8
  ret ptr %3
}

; Function Attrs: mustprogress nounwind uwtable
define linkonce_odr hidden noundef ptr @_ZN4llvm25SmallVectorTemplateCommonImvE5beginEv(ptr noundef nonnull align 8 dereferenceable(16) %0) #0 comdat align 2 {
  %2 = alloca ptr, align 8
  store ptr %0, ptr %2, align 8
  %3 = load ptr, ptr %2, align 8
  %4 = getelementptr inbounds nuw %"class.llvm::SmallVectorBase", ptr %3, i32 0, i32 0
  %5 = load ptr, ptr %4, align 8
  ret ptr %5
}

; Function Attrs: mustprogress nounwind uwtable
define linkonce_odr hidden noundef ptr @_ZN4llvm25trailing_objects_internal19TrailingObjectsImplILi8EN5clang13TypeTraitExprENS_15TrailingObjectsIS3_JPNS2_14TypeSourceInfoEEEES3_JS6_EE22getTrailingObjectsImplEPS3_NS0_19TrailingObjectsBase13OverloadTokenIS6_EE(ptr noundef %0) #0 comdat align 2 {
  %2 = alloca ptr, align 8
  %3 = alloca ptr, align 8
  store ptr %0, ptr %2, align 8
  %4 = load ptr, ptr %2, align 8
  %5 = call noundef ptr @_ZN4llvm15TrailingObjectsIN5clang13TypeTraitExprEJPNS1_14TypeSourceInfoEEE22getTrailingObjectsImplEPS2_NS_25trailing_objects_internal19TrailingObjectsBase13OverloadTokenIS2_EE(ptr noundef %4)
  %6 = load ptr, ptr %2, align 8
  %7 = call noundef i64 @_ZN4llvm15TrailingObjectsIN5clang13TypeTraitExprEJPNS1_14TypeSourceInfoEEE22callNumTrailingObjectsEPKS2_NS_25trailing_objects_internal19TrailingObjectsBase13OverloadTokenIS2_EE(ptr noundef %6)
  %8 = getelementptr inbounds %"class.clang::TypeTraitExpr", ptr %5, i64 %7
  store ptr %8, ptr %3, align 8
  %9 = load ptr, ptr %3, align 8
  ret ptr %9
}

; Function Attrs: mustprogress nounwind uwtable
define linkonce_odr hidden void @_ZN4llvm15TrailingObjectsIN5clang13TypeTraitExprEJPNS1_14TypeSourceInfoEEE31verifyTrailingObjectsAssertionsEv() #0 comdat align 2 {
  ret void
}

; Function Attrs: mustprogress nounwind uwtable
define linkonce_odr hidden i64 @_ZN5clang15ASTRecordReader15readSourceRangeEPNS_22SourceLocationSequenceE(ptr noundef nonnull align 8 dereferenceable(560) %0, ptr noundef %1) #0 comdat align 2 {
  %3 = alloca %"class.clang::SourceRange", align 4
  %4 = alloca ptr, align 8
  %5 = alloca ptr, align 8
  store ptr %0, ptr %4, align 8
  store ptr %1, ptr %5, align 8
  %6 = load ptr, ptr %4, align 8
  %7 = getelementptr inbounds nuw %"class.clang::ASTRecordReader", ptr %6, i32 0, i32 1
  %8 = load ptr, ptr %7, align 8
  %9 = getelementptr inbounds nuw %"class.clang::ASTRecordReader", ptr %6, i32 0, i32 2
  %10 = load ptr, ptr %9, align 8
  %11 = getelementptr inbounds nuw %"class.clang::ASTRecordReader", ptr %6, i32 0, i32 4
  %12 = getelementptr inbounds nuw %"class.clang::ASTRecordReader", ptr %6, i32 0, i32 3
  %13 = load ptr, ptr %5, align 8
  %14 = call i64 @_ZN5clang9ASTReader15ReadSourceRangeERNS_13serialization10ModuleFileERKN4llvm11SmallVectorImLj64EEERjPNS_22SourceLocationSequenceE(ptr noundef nonnull align 8 dereferenceable(15968) %8, ptr noundef nonnull align 8 dereferenceable(3464) %10, ptr noundef nonnull align 8 dereferenceable(528) %11, ptr noundef nonnull align 4 dereferenceable(4) %12, ptr noundef %13)
  store i64 %14, ptr %3, align 4
  %15 = load i64, ptr %3, align 4
  ret i64 %15
}

; Function Attrs: mustprogress nounwind uwtable
define linkonce_odr hidden noundef nonnull align 8 dereferenceable(8) ptr @_ZN4llvm25SmallVectorTemplateCommonImvEixEm(ptr noundef nonnull align 8 dereferenceable(16) %0, i64 noundef %1) #0 comdat align 2 {
  %3 = alloca ptr, align 8
  %4 = alloca i64, align 8
  store ptr %0, ptr %3, align 8
  store i64 %1, ptr %4, align 8
  %5 = load ptr, ptr %3, align 8
  %6 = call noundef ptr @_ZN4llvm25SmallVectorTemplateCommonImvE5beginEv(ptr noundef nonnull align 8 dereferenceable(16) %5)
  %7 = load i64, ptr %4, align 8
  %8 = getelementptr inbounds i64, ptr %6, i64 %7
  ret ptr %8
}

; Function Attrs: mustprogress nounwind uwtable
define linkonce_odr hidden noundef ptr @_ZN5clang13ASTStmtReader18readTypeSourceInfoEv(ptr noundef nonnull align 8 dereferenceable(28) %0) #0 comdat align 2 {
  %2 = alloca ptr, align 8
  store ptr %0, ptr %2, align 8
  %3 = load ptr, ptr %2, align 8
  %4 = getelementptr inbounds nuw %"class.clang::ASTStmtReader", ptr %3, i32 0, i32 0
  %5 = load ptr, ptr %4, align 8
  %6 = call noundef ptr @_ZN5clang15ASTRecordReader18readTypeSourceInfoEv(ptr noundef nonnull align 8 dereferenceable(560) %5)
  ret ptr %6
}

; Function Attrs: mustprogress nounwind uwtable
define linkonce_odr hidden noundef i32 @_ZNK5clang13TypeTraitExpr10getNumArgsEv(ptr noundef nonnull align 8 dereferenceable(24) %0) #0 comdat align 2 {
  %2 = alloca ptr, align 8
  store ptr %0, ptr %2, align 8
  %3 = load ptr, ptr %2, align 8
  %4 = getelementptr inbounds nuw %"class.clang::Stmt", ptr %3, i32 0, i32 0
  %5 = getelementptr inbounds nuw %"class.clang::Stmt::TypeTraitExprBitfields", ptr %4, i32 0, i32 1
  %6 = load i32, ptr %5, align 4
  ret i32 %6
}

; Function Attrs: mustprogress nounwind uwtable
define linkonce_odr hidden noundef ptr @_ZN4llvm15TrailingObjectsIN5clang13TypeTraitExprEJPNS1_14TypeSourceInfoEEE18getTrailingObjectsIS4_EEPT_v(ptr noundef nonnull align 8 dereferenceable(8) %0) #0 comdat align 2 {
  %2 = alloca ptr, align 8
  store ptr %0, ptr %2, align 8
  %3 = load ptr, ptr %2, align 8
  call void @_ZN4llvm15TrailingObjectsIN5clang13TypeTraitExprEJPNS1_14TypeSourceInfoEEE31verifyTrailingObjectsAssertionsEv()
  %4 = call noundef ptr @_ZN4llvm25trailing_objects_internal19TrailingObjectsImplILi8EN5clang13TypeTraitExprENS_15TrailingObjectsIS3_JPNS2_14TypeSourceInfoEEEES3_JS6_EE22getTrailingObjectsImplEPS3_NS0_19TrailingObjectsBase13OverloadTokenIS6_EE(ptr noundef %3)
  ret ptr %4
}

; Function Attrs: mustprogress nounwind uwtable
define linkonce_odr hidden i32 @_ZNK5clang11SourceRange6getEndEv(ptr noundef nonnull align 4 dereferenceable(8) %0) #0 comdat align 2 {
  %2 = alloca %"class.clang::SourceLocation", align 4
  %3 = alloca ptr, align 8
  store ptr %0, ptr %3, align 8
  %4 = load ptr, ptr %3, align 8
  %5 = getelementptr inbounds nuw %"class.clang::SourceRange", ptr %4, i32 0, i32 1
  call void @llvm.memcpy.p0.p0.i64(ptr align 4 %2, ptr align 4 %5, i64 4, i1 false)
  %6 = getelementptr inbounds nuw %"class.clang::SourceLocation", ptr %2, i32 0, i32 0
  %7 = load i32, ptr %6, align 4
  ret i32 %7
}

; Function Attrs: mustprogress nounwind uwtable
define linkonce_odr hidden i32 @_ZNK5clang11SourceRange8getBeginEv(ptr noundef nonnull align 4 dereferenceable(8) %0) #0 comdat align 2 {
  %2 = alloca %"class.clang::SourceLocation", align 4
  %3 = alloca ptr, align 8
  store ptr %0, ptr %3, align 8
  %4 = load ptr, ptr %3, align 8
  %5 = getelementptr inbounds nuw %"class.clang::SourceRange", ptr %4, i32 0, i32 0
  call void @llvm.memcpy.p0.p0.i64(ptr align 4 %2, ptr align 4 %5, i64 4, i1 false)
  %6 = getelementptr inbounds nuw %"class.clang::SourceLocation", ptr %2, i32 0, i32 0
  %7 = load i32, ptr %6, align 4
  ret i32 %7
}

; Function Attrs: mustprogress nounwind uwtable
define linkonce_odr hidden i64 @_ZN5clang13ASTStmtReader15readSourceRangeEv(ptr noundef nonnull align 8 dereferenceable(28) %0) #0 comdat align 2 {
  %2 = alloca %"class.clang::SourceRange", align 4
  %3 = alloca ptr, align 8
  store ptr %0, ptr %3, align 8
  %4 = load ptr, ptr %3, align 8
  %5 = getelementptr inbounds nuw %"class.clang::ASTStmtReader", ptr %4, i32 0, i32 0
  %6 = load ptr, ptr %5, align 8
  %7 = call i64 @_ZN5clang15ASTRecordReader15readSourceRangeEPNS_22SourceLocationSequenceE(ptr noundef nonnull align 8 dereferenceable(560) %6, ptr noundef null)
  store i64 %7, ptr %2, align 4
  %8 = load i64, ptr %2, align 4
  ret i64 %8
}

; Function Attrs: mustprogress nounwind uwtable
define linkonce_odr hidden noundef i64 @_ZN5clang15ASTRecordReader7readIntEv(ptr noundef nonnull align 8 dereferenceable(560) %0) #0 comdat align 2 {
  %2 = alloca ptr, align 8
  store ptr %0, ptr %2, align 8
  %3 = load ptr, ptr %2, align 8
  %4 = getelementptr inbounds nuw %"class.clang::ASTRecordReader", ptr %3, i32 0, i32 4
  %5 = getelementptr inbounds nuw %"class.clang::ASTRecordReader", ptr %3, i32 0, i32 3
  %6 = load i32, ptr %5, align 8
  %7 = add i32 %6, 1
  store i32 %7, ptr %5, align 8
  %8 = zext i32 %6 to i64
  %9 = call noundef nonnull align 8 dereferenceable(8) ptr @_ZN4llvm25SmallVectorTemplateCommonImvEixEm(ptr noundef nonnull align 8 dereferenceable(16) %4, i64 noundef %8)
  %10 = load i64, ptr %9, align 8
  ret i64 %10
}

; Function Attrs: mustprogress nounwind uwtable
define dso_local void @_ZN5clang13ASTStmtReader18VisitTypeTraitExprEPNS_13TypeTraitExprE(ptr noundef nonnull align 8 dereferenceable(28) %0, ptr noundef %1) #0 align 2 {
  %3 = alloca ptr, align 8
  %4 = alloca ptr, align 8
  %5 = alloca %"class.clang::SourceRange", align 4
  %6 = alloca %"class.clang::SourceLocation", align 4
  %7 = alloca %"class.clang::SourceLocation", align 4
  %8 = alloca ptr, align 8
  %9 = alloca i32, align 4
  %10 = alloca i32, align 4
  store ptr %0, ptr %3, align 8
  store ptr %1, ptr %4, align 8
  %11 = load ptr, ptr %3, align 8
  %12 = load ptr, ptr %4, align 8
  call void @_ZN5clang13ASTStmtReader9VisitExprEPNS_4ExprE(ptr noundef nonnull align 8 dereferenceable(28) %11, ptr noundef %12)
  %13 = getelementptr inbounds nuw %"class.clang::ASTStmtReader", ptr %11, i32 0, i32 0
  %14 = load ptr, ptr %13, align 8
  %15 = call noundef i64 @_ZN5clang15ASTRecordReader7readIntEv(ptr noundef nonnull align 8 dereferenceable(560) %14)
  %16 = trunc i64 %15 to i32
  %17 = load ptr, ptr %4, align 8
  %18 = getelementptr inbounds nuw %"class.clang::Stmt", ptr %17, i32 0, i32 0
  %19 = getelementptr inbounds nuw %"class.clang::Stmt::TypeTraitExprBitfields", ptr %18, i32 0, i32 1
  store i32 %16, ptr %19, align 4
  %20 = getelementptr inbounds nuw %"class.clang::ASTStmtReader", ptr %11, i32 0, i32 0
  %21 = load ptr, ptr %20, align 8
  %22 = call noundef i64 @_ZN5clang15ASTRecordReader7readIntEv(ptr noundef nonnull align 8 dereferenceable(560) %21)
  %23 = trunc i64 %22 to i32
  %24 = load ptr, ptr %4, align 8
  %25 = getelementptr inbounds nuw %"class.clang::Stmt", ptr %24, i32 0, i32 0
  %26 = load i32, ptr %25, align 8
  %27 = and i32 %23, 255
  %28 = shl i32 %27, 18
  %29 = and i32 %26, -66846721
  %30 = or i32 %29, %28
  store i32 %30, ptr %25, align 8
  %31 = getelementptr inbounds nuw %"class.clang::ASTStmtReader", ptr %11, i32 0, i32 0
  %32 = load ptr, ptr %31, align 8
  %33 = call noundef i64 @_ZN5clang15ASTRecordReader7readIntEv(ptr noundef nonnull align 8 dereferenceable(560) %32)
  %34 = trunc i64 %33 to i32
  %35 = load ptr, ptr %4, align 8
  %36 = getelementptr inbounds nuw %"class.clang::Stmt", ptr %35, i32 0, i32 0
  %37 = load i32, ptr %36, align 8
  %38 = and i32 %34, 1
  %39 = shl i32 %38, 26
  %40 = and i32 %37, -67108865
  %41 = or i32 %40, %39
  store i32 %41, ptr %36, align 8
  %42 = call i64 @_ZN5clang13ASTStmtReader15readSourceRangeEv(ptr noundef nonnull align 8 dereferenceable(28) %11)
  store i64 %42, ptr %5, align 4
  %43 = call i32 @_ZNK5clang11SourceRange8getBeginEv(ptr noundef nonnull align 4 dereferenceable(8) %5)
  %44 = getelementptr inbounds nuw %"class.clang::SourceLocation", ptr %6, i32 0, i32 0
  store i32 %43, ptr %44, align 4
  %45 = load ptr, ptr %4, align 8
  %46 = getelementptr inbounds nuw %"class.clang::TypeTraitExpr", ptr %45, i32 0, i32 1
  call void @llvm.memcpy.p0.p0.i64(ptr align 8 %46, ptr align 4 %6, i64 4, i1 false)
  %47 = call i32 @_ZNK5clang11SourceRange6getEndEv(ptr noundef nonnull align 4 dereferenceable(8) %5)
  %48 = getelementptr inbounds nuw %"class.clang::SourceLocation", ptr %7, i32 0, i32 0
  store i32 %47, ptr %48, align 4
  %49 = load ptr, ptr %4, align 8
  %50 = getelementptr inbounds nuw %"class.clang::TypeTraitExpr", ptr %49, i32 0, i32 2
  call void @llvm.memcpy.p0.p0.i64(ptr align 4 %50, ptr align 4 %7, i64 4, i1 false)
  %51 = load ptr, ptr %4, align 8
  %52 = call noundef ptr @_ZN4llvm15TrailingObjectsIN5clang13TypeTraitExprEJPNS1_14TypeSourceInfoEEE18getTrailingObjectsIS4_EEPT_v(ptr noundef nonnull align 8 dereferenceable(8) %51)
  store ptr %52, ptr %8, align 8
  store i32 0, ptr %9, align 4
  %53 = load ptr, ptr %4, align 8
  %54 = call noundef i32 @_ZNK5clang13TypeTraitExpr10getNumArgsEv(ptr noundef nonnull align 8 dereferenceable(24) %53)
  store i32 %54, ptr %10, align 4
  br label %55

55:                                               ; preds = %65, %2
  %56 = load i32, ptr %9, align 4
  %57 = load i32, ptr %10, align 4
  %58 = icmp ne i32 %56, %57
  br i1 %58, label %59, label %68

59:                                               ; preds = %55
  %60 = call noundef ptr @_ZN5clang13ASTStmtReader18readTypeSourceInfoEv(ptr noundef nonnull align 8 dereferenceable(28) %11)
  %61 = load ptr, ptr %8, align 8
  %62 = load i32, ptr %9, align 4
  %63 = zext i32 %62 to i64
  %64 = getelementptr inbounds ptr, ptr %61, i64 %63
  store ptr %60, ptr %64, align 8
  br label %65

65:                                               ; preds = %59
  %66 = load i32, ptr %9, align 4
  %67 = add i32 %66, 1
  store i32 %67, ptr %9, align 4
  br label %55, !llvm.loop !58

68:                                               ; preds = %55
  ret void
}