; Function Attrs: mustprogress nounwind uwtable
define dso_local void @_ZN5clang13ASTStmtReader18VisitTypeTraitExprEPNS_13TypeTraitExprE(ptr noundef nonnull align 8 captures(none) dereferenceable(28) initializes((16, 25)) %0, ptr noundef captures(none) initializes((8, 16)) %1) local_unnamed_addr #0 align 2 {
  tail call void @_ZN5clang13ASTStmtReader9VisitExprEPNS_4ExprE(ptr noundef nonnull align 8 dereferenceable(28) %0, ptr noundef %1)
  %3 = load ptr, ptr %0, align 8
  %4 = getelementptr inbounds nuw i8, ptr %3, i64 32
  %5 = getelementptr inbounds nuw i8, ptr %3, i64 24
  %6 = load i32, ptr %5, align 8
  %7 = add i32 %6, 1
  store i32 %7, ptr %5, align 8
  %8 = zext i32 %6 to i64
  %9 = load ptr, ptr %4, align 8
  %10 = getelementptr inbounds nuw i64, ptr %9, i64 %8
  %11 = load i64, ptr %10, align 8
  %12 = trunc i64 %11 to i32
  %13 = getelementptr inbounds nuw i8, ptr %1, i64 4
  store i32 %12, ptr %13, align 4
  %14 = load ptr, ptr %0, align 8
  %15 = getelementptr inbounds nuw i8, ptr %14, i64 32
  %16 = getelementptr inbounds nuw i8, ptr %14, i64 24
  %17 = load i32, ptr %16, align 8
  %18 = add i32 %17, 1
  store i32 %18, ptr %16, align 8
  %19 = zext i32 %17 to i64
  %20 = load ptr, ptr %15, align 8
  %21 = getelementptr inbounds nuw i64, ptr %20, i64 %19
  %22 = load i64, ptr %21, align 8
  %23 = trunc i64 %22 to i32
  %24 = load i32, ptr %1, align 8
  %25 = shl i32 %23, 18
  %26 = and i32 %25, 66846720
  %27 = and i32 %24, -66846721
  %28 = or disjoint i32 %26, %27
  store i32 %28, ptr %1, align 8
  %29 = load ptr, ptr %0, align 8
  %30 = getelementptr inbounds nuw i8, ptr %29, i64 32
  %31 = getelementptr inbounds nuw i8, ptr %29, i64 24
  %32 = load i32, ptr %31, align 8
  %33 = add i32 %32, 1
  store i32 %33, ptr %31, align 8
  %34 = zext i32 %32 to i64
  %35 = load ptr, ptr %30, align 8
  %36 = getelementptr inbounds nuw i64, ptr %35, i64 %34
  %37 = load i64, ptr %36, align 8
  %38 = trunc i64 %37 to i32
  %39 = load i32, ptr %1, align 8
  %40 = shl i32 %38, 26
  %41 = and i32 %40, 67108864
  %42 = and i32 %39, -67108865
  %43 = or disjoint i32 %41, %42
  store i32 %43, ptr %1, align 8
  %44 = load ptr, ptr %0, align 8
  %45 = getelementptr inbounds nuw i8, ptr %44, i64 8
  %46 = load ptr, ptr %45, align 8
  %47 = getelementptr inbounds nuw i8, ptr %44, i64 16
  %48 = load ptr, ptr %47, align 8
  %49 = getelementptr inbounds nuw i8, ptr %44, i64 32
  %50 = getelementptr inbounds nuw i8, ptr %44, i64 24
  %51 = tail call i64 @_ZN5clang9ASTReader15ReadSourceRangeERNS_13serialization10ModuleFileERKN4llvm11SmallVectorImLj64EEERjPNS_22SourceLocationSequenceE(ptr noundef nonnull align 8 dereferenceable(15968) %46, ptr noundef nonnull align 8 dereferenceable(3464) %48, ptr noundef nonnull align 8 dereferenceable(528) %49, ptr noundef nonnull align 4 dereferenceable(4) %50, ptr noundef null) #18
  %.sroa.0.0.extract.trunc = trunc i64 %51 to i32
  %.sroa.2.0.extract.shift = lshr i64 %51, 32
  %.sroa.2.0.extract.trunc = trunc nuw i64 %.sroa.2.0.extract.shift to i32
  %52 = getelementptr inbounds nuw i8, ptr %1, i64 16
  store i32 %.sroa.0.0.extract.trunc, ptr %52, align 8
  %53 = getelementptr inbounds nuw i8, ptr %1, i64 20
  store i32 %.sroa.2.0.extract.trunc, ptr %53, align 4
  %54 = getelementptr inbounds nuw i8, ptr %1, i64 24
  %55 = load i32, ptr %13, align 4
  %.not15 = icmp eq i32 %55, 0
  br i1 %.not15, label %._crit_edge, label %.lr.ph.preheader

.lr.ph.preheader:                                 ; preds = %2
  %56 = zext i32 %55 to i64
  br label %.lr.ph

.lr.ph:                                           ; preds = %.lr.ph.preheader, %.lr.ph
  %indvars.iv = phi i64 [ 0, %.lr.ph.preheader ], [ %indvars.iv.next, %.lr.ph ]
  %57 = load ptr, ptr %0, align 8
  %58 = tail call noundef ptr @_ZN5clang15ASTRecordReader18readTypeSourceInfoEv(ptr noundef nonnull align 8 dereferenceable(560) %57) #18
  %59 = getelementptr inbounds nuw ptr, ptr %54, i64 %indvars.iv
  store ptr %58, ptr %59, align 8
  %indvars.iv.next = add nuw nsw i64 %indvars.iv, 1
  %.not = icmp eq i64 %indvars.iv.next, %56
  br i1 %.not, label %._crit_edge, label %.lr.ph, !llvm.loop !103

._crit_edge:                                      ; preds = %.lr.ph, %2
  ret void
}